; Function Attrs: mustprogress nofree norecurse nosync nounwind willreturn memory(readwrite, inaccessiblemem: none) uwtable
define dso_local void @_ZN5ImGui8LogToTTYEi(i32 noundef %0) local_unnamed_addr #34 {
  %2 = load ptr, ptr @GImGui, align 8, !tbaa !211
  %3 = getelementptr inbounds nuw i8, ptr %2, i64 9712
  %4 = load i8, ptr %3, align 8, !tbaa !388, !range !92, !noundef !93
  %5 = trunc nuw i8 %4 to i1
  br i1 %5, label %25, label %6

6:                                                ; preds = %1
  %7 = getelementptr inbounds nuw i8, ptr %2, i64 4928
  %8 = load ptr, ptr %7, align 8, !tbaa !308
  %9 = getelementptr inbounds nuw i8, ptr %2, i64 5042
  store i8 1, ptr %9, align 2, !tbaa !794
  store i8 1, ptr %3, align 8, !tbaa !388
  %10 = getelementptr inbounds nuw i8, ptr %2, i64 9716
  store i32 1, ptr %10, align 4, !tbaa !637
  %11 = getelementptr inbounds nuw i8, ptr %2, i64 9744
  %12 = getelementptr inbounds nuw i8, ptr %8, i64 416
  tail call void @llvm.memset.p0.i64(ptr noundef nonnull align 8 dereferenceable(16) %11, i8 0, i64 16, i1 false)
  %13 = load i32, ptr %12, align 8, !tbaa !456
  %14 = getelementptr inbounds nuw i8, ptr %2, i64 9768
  store i32 %13, ptr %14, align 8, !tbaa !455
  %15 = icmp sgt i32 %0, -1
  br i1 %15, label %_ZN5ImGui8LogBeginE12ImGuiLogTypei.exit, label %16

16:                                               ; preds = %6
  %17 = getelementptr inbounds nuw i8, ptr %2, i64 9776
  %18 = load i32, ptr %17, align 8, !tbaa !638
  br label %_ZN5ImGui8LogBeginE12ImGuiLogTypei.exit

_ZN5ImGui8LogBeginE12ImGuiLogTypei.exit:          ; preds = %6, %16
  %19 = phi i32 [ %18, %16 ], [ %0, %6 ]
  %20 = getelementptr inbounds nuw i8, ptr %2, i64 9772
  store i32 %19, ptr %20, align 4, !tbaa !639
  %21 = getelementptr inbounds nuw i8, ptr %2, i64 9760
  store float 0x47EFFFFFE0000000, ptr %21, align 8, !tbaa !452
  %22 = getelementptr inbounds nuw i8, ptr %2, i64 9764
  store i8 1, ptr %22, align 4, !tbaa !454
  %23 = load ptr, ptr @stdout, align 8, !tbaa !563
  %24 = getelementptr inbounds nuw i8, ptr %2, i64 9720
  store ptr %23, ptr %24, align 8, !tbaa !562
  br label %25

25:                                               ; preds = %1, %_ZN5ImGui8LogBeginE12ImGuiLogTypei.exit
  ret void
}